target datalayout = "e-m:e-p270:32:32-p271:32:32-p272:64:64-i64:64-i128:128-f80:128-n8:16:32:64-S128"
target triple = "x86_64-pc-linux-gnu"

%union.pthread_mutex_t = type { %struct.__pthread_mutex_s }
%struct.__pthread_mutex_s = type { i32, i32, i32, i32, i32, i16, i16, %struct.__pthread_internal_list }
%struct.__pthread_internal_list = type { ptr, ptr }
%struct.slurm_acct_gather_energy_ops = type { ptr, ptr, ptr, ptr, ptr, ptr }

@g_context_lock = internal global %union.pthread_mutex_t zeroinitializer, align 8
@.str.1 = private unnamed_addr constant [29 x i8] c"%s: pthread_mutex_lock(): %m\00", align 1
@g_context_num = internal global i32 -1, align 4
@ops = internal global ptr null, align 8
@g_context = internal global ptr null, align 8
@.str.7 = private unnamed_addr constant [31 x i8] c"%s: pthread_mutex_unlock(): %m\00", align 1
@__func__.acct_gather_energy_g_set_data = private unnamed_addr constant [30 x i8] c"acct_gather_energy_g_set_data\00", align 1

; Function Attrs: nounwind uwtable
define dso_local i32 @acct_gather_energy_g_set_data(i32 noundef %0, ptr noundef %1) #0 {
  %3 = alloca i32, align 4
  %4 = alloca i32, align 4
  %5 = alloca ptr, align 8
  %6 = alloca i32, align 4
  %7 = alloca i32, align 4
  %8 = alloca i32, align 4
  %9 = alloca i32, align 4
  %10 = alloca i32, align 4
  store i32 %0, ptr %4, align 4
  store ptr %1, ptr %5, align 8
  call void @llvm.lifetime.start.p0(i64 4, ptr %6) #7
  store i32 -1, ptr %6, align 4
  %11 = load i32, ptr @g_context_num, align 4
  %12 = icmp ne i32 %11, 0
  br i1 %12, label %14, label %13

13:                                               ; preds = %2
  store i32 0, ptr %3, align 4
  store i32 1, ptr %7, align 4
  br label %63

14:                                               ; preds = %2
  br label %15

15:                                               ; preds = %14
  call void @llvm.lifetime.start.p0(i64 4, ptr %8) #7
  %16 = call i32 @pthread_mutex_lock(ptr noundef @g_context_lock) #7
  store i32 %16, ptr %8, align 4
  %17 = load i32, ptr %8, align 4
  %18 = icmp ne i32 %17, 0
  br i1 %18, label %19, label %22

19:                                               ; preds = %15
  %20 = load i32, ptr %8, align 4
  %21 = call ptr @__errno_location() #8
  store i32 %20, ptr %21, align 4
  call void (ptr, ...) @fatal_abort(ptr noundef @.str.1, ptr noundef @__func__.acct_gather_energy_g_set_data) #9
  unreachable

22:                                               ; preds = %15
  call void @llvm.lifetime.end.p0(i64 4, ptr %8) #7
  br label %23

23:                                               ; preds = %22
  br label %24

24:                                               ; preds = %23
  call void @llvm.lifetime.start.p0(i64 4, ptr %9) #7
  store i32 0, ptr %9, align 4
  br label %25

25:                                               ; preds = %48, %24
  %26 = load i32, ptr %9, align 4
  %27 = load i32, ptr @g_context_num, align 4
  %28 = icmp slt i32 %26, %27
  br i1 %28, label %30, label %29

29:                                               ; preds = %25
  store i32 4, ptr %7, align 4
  call void @llvm.lifetime.end.p0(i64 4, ptr %9) #7
  br label %51

30:                                               ; preds = %25
  %31 = load ptr, ptr @g_context, align 8
  %32 = load i32, ptr %9, align 4
  %33 = sext i32 %32 to i64
  %34 = getelementptr inbounds ptr, ptr %31, i64 %33
  %35 = load ptr, ptr %34, align 8
  %36 = icmp ne ptr %35, null
  br i1 %36, label %38, label %37

37:                                               ; preds = %30
  br label %48

38:                                               ; preds = %30
  %39 = load ptr, ptr @ops, align 8
  %40 = load i32, ptr %9, align 4
  %41 = sext i32 %40 to i64
  %42 = getelementptr inbounds %struct.slurm_acct_gather_energy_ops, ptr %39, i64 %41
  %43 = getelementptr inbounds nuw %struct.slurm_acct_gather_energy_ops, ptr %42, i32 0, i32 2
  %44 = load ptr, ptr %43, align 8
  %45 = load i32, ptr %4, align 4
  %46 = load ptr, ptr %5, align 8
  %47 = call i32 %44(i32 noundef %45, ptr noundef %46)
  store i32 %47, ptr %6, align 4
  br label %48

48:                                               ; preds = %38, %37
  %49 = load i32, ptr %9, align 4
  %50 = add nsw i32 %49, 1
  store i32 %50, ptr %9, align 4
  br label %25, !llvm.loop !16

51:                                               ; preds = %29
  br label %52

52:                                               ; preds = %51
  call void @llvm.lifetime.start.p0(i64 4, ptr %10) #7
  %53 = call i32 @pthread_mutex_unlock(ptr noundef @g_context_lock) #7
  store i32 %53, ptr %10, align 4
  %54 = load i32, ptr %10, align 4
  %55 = icmp ne i32 %54, 0
  br i1 %55, label %56, label %59

56:                                               ; preds = %52
  %57 = load i32, ptr %10, align 4
  %58 = call ptr @__errno_location() #8
  store i32 %57, ptr %58, align 4
  call void (ptr, ...) @fatal_abort(ptr noundef @.str.7, ptr noundef @__func__.acct_gather_energy_g_set_data) #9
  unreachable

59:                                               ; preds = %52
  call void @llvm.lifetime.end.p0(i64 4, ptr %10) #7
  br label %60

60:                                               ; preds = %59
  br label %61

61:                                               ; preds = %60
  %62 = load i32, ptr %6, align 4
  store i32 %62, ptr %3, align 4
  store i32 1, ptr %7, align 4
  br label %63

63:                                               ; preds = %61, %13
  call void @llvm.lifetime.end.p0(i64 4, ptr %6) #7
  %64 = load i32, ptr %3, align 4
  ret i32 %64
}