; Function Attrs: nounwind uwtable
define dso_local i32 @acct_gather_energy_g_set_data(i32 noundef %0, ptr noundef %1) local_unnamed_addr #0 {
  %3 = load i32, ptr @g_context_num, align 4
  %.not = icmp eq i32 %3, 0
  br i1 %.not, label %27, label %4

4:                                                ; preds = %2
  %5 = tail call i32 @pthread_mutex_lock(ptr noundef nonnull @g_context_lock) #8
  %.not15 = icmp eq i32 %5, 0
  br i1 %.not15, label %.preheader, label %8

.preheader:                                       ; preds = %4
  %6 = load i32, ptr @g_context_num, align 4
  %7 = icmp sgt i32 %6, 0
  br i1 %7, label %.lr.ph.preheader, label %._crit_edge

.lr.ph.preheader:                                 ; preds = %.preheader
  %.pre21 = load ptr, ptr @g_context, align 8
  br label %.lr.ph

8:                                                ; preds = %4
  %9 = tail call ptr @__errno_location() #9
  store i32 %5, ptr %9, align 4
  tail call void (ptr, ...) @fatal_abort(ptr noundef nonnull @.str.1, ptr noundef nonnull @__func__.acct_gather_energy_g_set_data) #10
  unreachable

._crit_edge:                                      ; preds = %20, %.preheader
  %.012.lcssa = phi i32 [ -1, %.preheader ], [ %.1, %20 ]
  %10 = tail call i32 @pthread_mutex_unlock(ptr noundef nonnull @g_context_lock) #8
  %.not16 = icmp eq i32 %10, 0
  br i1 %.not16, label %27, label %25

.lr.ph:                                           ; preds = %.lr.ph.preheader, %20
  %11 = phi i32 [ %6, %.lr.ph.preheader ], [ %21, %20 ]
  %12 = phi ptr [ %.pre21, %.lr.ph.preheader ], [ %22, %20 ]
  %indvars.iv = phi i64 [ 0, %.lr.ph.preheader ], [ %indvars.iv.next, %20 ]
  %.01218 = phi i32 [ -1, %.lr.ph.preheader ], [ %.1, %20 ]
  %13 = getelementptr inbounds nuw ptr, ptr %12, i64 %indvars.iv
  %14 = load ptr, ptr %13, align 8
  %.not17 = icmp eq ptr %14, null
  br i1 %.not17, label %20, label %15

15:                                               ; preds = %.lr.ph
  %16 = load ptr, ptr @ops, align 8
  %17 = getelementptr inbounds nuw %struct.slurm_acct_gather_energy_ops, ptr %16, i64 %indvars.iv, i32 2
  %18 = load ptr, ptr %17, align 8
  %19 = tail call i32 %18(i32 noundef %0, ptr noundef %1) #8
  %.pre = load ptr, ptr @g_context, align 8
  %.pre22 = load i32, ptr @g_context_num, align 4
  br label %20

20:                                               ; preds = %.lr.ph, %15
  %21 = phi i32 [ %.pre22, %15 ], [ %11, %.lr.ph ]
  %22 = phi ptr [ %.pre, %15 ], [ %12, %.lr.ph ]
  %.1 = phi i32 [ %19, %15 ], [ %.01218, %.lr.ph ]
  %indvars.iv.next = add nuw nsw i64 %indvars.iv, 1
  %23 = sext i32 %21 to i64
  %24 = icmp slt i64 %indvars.iv.next, %23
  br i1 %24, label %.lr.ph, label %._crit_edge, !llvm.loop !14

25:                                               ; preds = %._crit_edge
  %26 = tail call ptr @__errno_location() #9
  store i32 %10, ptr %26, align 4
  tail call void (ptr, ...) @fatal_abort(ptr noundef nonnull @.str.7, ptr noundef nonnull @__func__.acct_gather_energy_g_set_data) #10
  unreachable

27:                                               ; preds = %._crit_edge, %2
  %.0 = phi i32 [ 0, %2 ], [ %.012.lcssa, %._crit_edge ]
  ret i32 %.0
}